target datalayout = "e-m:e-p270:32:32-p271:32:32-p272:64:64-i64:64-i128:128-f80:128-n8:16:32:64-S128"
target triple = "x86_64-pc-linux-gnu"

%struct.SwrContext = type { ptr, i32, ptr, i32, i32, i32, %struct.AVChannelLayout, %struct.AVChannelLayout, %struct.AVChannelLayout, i32, i32, i32, float, float, float, float, float, i32, ptr, i32, %struct.AVChannelLayout, %struct.AVChannelLayout, %struct.AVChannelLayout, i32, i32, %struct.DitherContext, i32, i32, i32, i32, double, i32, double, double, i32, float, float, float, float, float, i64, i32, i32, i32, %struct.AudioData, %struct.AudioData, %struct.AudioData, %struct.AudioData, %struct.AudioData, %struct.AudioData, %struct.AudioData, %struct.AudioData, i32, i32, i32, i32, i64, i64, i32, double, ptr, ptr, ptr, ptr, ptr, [64 x [64 x double]], [64 x [64 x float]], ptr, ptr, ptr, ptr, [64 x [64 x i32]], [64 x [65 x i8]], ptr, ptr, ptr, ptr, ptr }
%struct.AVChannelLayout = type { i32, i32, %union.anon, ptr }
%union.anon = type { i64 }
%struct.DitherContext = type { i32, i32, float, float, i32, float, float, i32, [20 x float], [64 x [40 x float]], %struct.AudioData, %struct.AudioData, i32 }
%struct.AudioData = type { [64 x ptr], ptr, i32, i32, i32, i32, i32 }

; Function Attrs: nounwind uwtable
define i32 @swr_set_channel_mapping(ptr noundef %0, ptr noundef %1) #0 {
  %3 = alloca i32, align 4
  %4 = alloca ptr, align 8
  %5 = alloca ptr, align 8
  store ptr %0, ptr %4, align 8, !tbaa !4
  store ptr %1, ptr %5, align 8, !tbaa !9
  %6 = load ptr, ptr %4, align 8, !tbaa !4
  %7 = icmp ne ptr %6, null
  br i1 %7, label %8, label %13

8:                                                ; preds = %2
  %9 = load ptr, ptr %4, align 8, !tbaa !4
  %10 = getelementptr inbounds nuw %struct.SwrContext, ptr %9, i32 0, i32 60
  %11 = load ptr, ptr %10, align 8, !tbaa !11
  %12 = icmp ne ptr %11, null
  br i1 %12, label %13, label %14

13:                                               ; preds = %8, %2
  store i32 -22, ptr %3, align 4
  br label %18

14:                                               ; preds = %8
  %15 = load ptr, ptr %5, align 8, !tbaa !9
  %16 = load ptr, ptr %4, align 8, !tbaa !4
  %17 = getelementptr inbounds nuw %struct.SwrContext, ptr %16, i32 0, i32 18
  store ptr %15, ptr %17, align 8, !tbaa !25
  store i32 0, ptr %3, align 4
  br label %18

18:                                               ; preds = %14, %13
  %19 = load i32, ptr %3, align 4
  ret i32 %19
}