; Function Attrs: mustprogress nofree norecurse nosync nounwind willreturn memory(argmem: readwrite) uwtable
define range(i32 -22, 1) i32 @swr_set_channel_mapping(ptr noundef captures(address_is_null) %0, ptr noundef %1) local_unnamed_addr #0 {
  %.not = icmp eq ptr %0, null
  br i1 %.not, label %8, label %3

3:                                                ; preds = %2
  %4 = getelementptr inbounds nuw i8, ptr %0, i64 16192
  %5 = load ptr, ptr %4, align 8, !tbaa !4
  %.not5 = icmp eq ptr %5, null
  br i1 %.not5, label %6, label %8

6:                                                ; preds = %3
  %7 = getelementptr inbounds nuw i8, ptr %0, i64 152
  store ptr %1, ptr %7, align 8, !tbaa !22
  br label %8

8:                                                ; preds = %2, %3, %6
  %.0 = phi i32 [ 0, %6 ], [ -22, %3 ], [ -22, %2 ]
  ret i32 %.0
}